; Function Attrs: nounwind uwtable
define ptr @l_Lean_Widget_ExprDiff_insertAfterChange(ptr noundef %0, i8 noundef zeroext %1, ptr noundef %2) local_unnamed_addr #0 {
  %.val = load i32, ptr %2, align 4, !tbaa !8
  %4 = icmp eq i32 %.val, 1
  br i1 %4, label %5, label %13

5:                                                ; preds = %3
  %6 = getelementptr inbounds nuw i8, ptr %2, i64 16
  %7 = load ptr, ptr %6, align 8, !tbaa !4
  %8 = tail call zeroext i8 @l_Lean_RBNode_isRed___rarg(ptr noundef %7) #7
  %9 = icmp eq i8 %8, 0
  %10 = tail call ptr @l_Lean_RBNode_ins___at_Lean_Widget_ExprDiff_insertBeforeChange___spec__2(ptr noundef %7, ptr noundef %0, i8 noundef zeroext %1)
  br i1 %9, label %l_Lean_RBNode_insert___at_Lean_Widget_ExprDiff_insertBeforeChange___spec__1.exit, label %11

11:                                               ; preds = %5
  %12 = tail call ptr @l_Lean_RBNode_setBlack___rarg(ptr noundef %10) #7
  br label %l_Lean_RBNode_insert___at_Lean_Widget_ExprDiff_insertBeforeChange___spec__1.exit

l_Lean_RBNode_insert___at_Lean_Widget_ExprDiff_insertBeforeChange___spec__1.exit: ; preds = %5, %11
  %.0.i = phi ptr [ %12, %11 ], [ %10, %5 ]
  store ptr %.0.i, ptr %6, align 8, !tbaa !4
  br label %54

13:                                               ; preds = %3
  %14 = getelementptr inbounds nuw i8, ptr %2, i64 8
  %15 = load ptr, ptr %14, align 8, !tbaa !4
  %16 = getelementptr inbounds nuw i8, ptr %2, i64 16
  %17 = load ptr, ptr %16, align 8, !tbaa !4
  %18 = ptrtoint ptr %17 to i64
  %19 = and i64 %18, 1
  %.not = icmp eq i64 %19, 0
  br i1 %.not, label %20, label %lean_inc.exit22

20:                                               ; preds = %13
  %.val.i = load i32, ptr %17, align 4, !tbaa !8
  %21 = icmp sgt i32 %.val.i, 0
  br i1 %21, label %22, label %24, !prof !11

22:                                               ; preds = %20
  %23 = add nuw i32 %.val.i, 1
  store i32 %23, ptr %17, align 4, !tbaa !8
  br label %lean_inc.exit22

24:                                               ; preds = %20
  %.not.i23 = icmp eq i32 %.val.i, 0
  br i1 %.not.i23, label %lean_inc.exit22, label %25

25:                                               ; preds = %24
  tail call void @lean_inc_ref_cold(ptr noundef nonnull %17) #7
  br label %lean_inc.exit22

lean_inc.exit22:                                  ; preds = %25, %24, %22, %13
  %26 = ptrtoint ptr %15 to i64
  %27 = and i64 %26, 1
  %.not29 = icmp eq i64 %27, 0
  br i1 %.not29, label %28, label %lean_inc.exit

28:                                               ; preds = %lean_inc.exit22
  %.val.i24 = load i32, ptr %15, align 4, !tbaa !8
  %29 = icmp sgt i32 %.val.i24, 0
  br i1 %29, label %30, label %32, !prof !11

30:                                               ; preds = %28
  %31 = add nuw i32 %.val.i24, 1
  store i32 %31, ptr %15, align 4, !tbaa !8
  br label %lean_inc.exit

32:                                               ; preds = %28
  %.not.i25 = icmp eq i32 %.val.i24, 0
  br i1 %.not.i25, label %lean_inc.exit, label %33

33:                                               ; preds = %32
  tail call void @lean_inc_ref_cold(ptr noundef nonnull %15) #7
  br label %lean_inc.exit

lean_inc.exit:                                    ; preds = %33, %32, %30, %lean_inc.exit22
  %34 = ptrtoint ptr %2 to i64
  %35 = and i64 %34, 1
  %.not30 = icmp eq i64 %35, 0
  br i1 %.not30, label %36, label %lean_dec.exit

36:                                               ; preds = %lean_inc.exit
  %37 = load i32, ptr %2, align 4, !tbaa !8
  %38 = icmp sgt i32 %37, 1
  br i1 %38, label %39, label %41, !prof !11

39:                                               ; preds = %36
  %40 = add nsw i32 %37, -1
  store i32 %40, ptr %2, align 4, !tbaa !8
  br label %lean_dec.exit

41:                                               ; preds = %36
  %.not.i = icmp eq i32 %37, 0
  br i1 %.not.i, label %lean_dec.exit, label %42

42:                                               ; preds = %41
  tail call void @lean_dec_ref_cold(ptr noundef nonnull %2) #7
  br label %lean_dec.exit

lean_dec.exit:                                    ; preds = %42, %41, %39, %lean_inc.exit
  %43 = tail call zeroext i8 @l_Lean_RBNode_isRed___rarg(ptr noundef %17) #7
  %44 = icmp eq i8 %43, 0
  %45 = tail call ptr @l_Lean_RBNode_ins___at_Lean_Widget_ExprDiff_insertBeforeChange___spec__2(ptr noundef %17, ptr noundef %0, i8 noundef zeroext %1)
  br i1 %44, label %l_Lean_RBNode_insert___at_Lean_Widget_ExprDiff_insertBeforeChange___spec__1.exit28, label %46

46:                                               ; preds = %lean_dec.exit
  %47 = tail call ptr @l_Lean_RBNode_setBlack___rarg(ptr noundef %45) #7
  br label %l_Lean_RBNode_insert___at_Lean_Widget_ExprDiff_insertBeforeChange___spec__1.exit28

l_Lean_RBNode_insert___at_Lean_Widget_ExprDiff_insertBeforeChange___spec__1.exit28: ; preds = %lean_dec.exit, %46
  %.0.i27 = phi ptr [ %47, %46 ], [ %45, %lean_dec.exit ]
  tail call void @lean_inc_heartbeat() #7
  %48 = tail call noalias ptr @mi_malloc_small(i64 noundef 24) #7
  %49 = icmp eq ptr %48, null
  br i1 %49, label %50, label %lean_alloc_ctor.exit

50:                                               ; preds = %l_Lean_RBNode_insert___at_Lean_Widget_ExprDiff_insertBeforeChange___spec__1.exit28
  tail call void @lean_internal_panic_out_of_memory() #8
  unreachable

lean_alloc_ctor.exit:                             ; preds = %l_Lean_RBNode_insert___at_Lean_Widget_ExprDiff_insertBeforeChange___spec__1.exit28
  %51 = getelementptr inbounds nuw i8, ptr %48, i64 4
  store i32 1, ptr %48, align 4, !tbaa !8
  store i32 131096, ptr %51, align 4
  %52 = getelementptr inbounds nuw i8, ptr %48, i64 8
  store ptr %15, ptr %52, align 8, !tbaa !4
  %53 = getelementptr inbounds nuw i8, ptr %48, i64 16
  store ptr %.0.i27, ptr %53, align 8, !tbaa !4
  br label %54

54:                                               ; preds = %lean_alloc_ctor.exit, %l_Lean_RBNode_insert___at_Lean_Widget_ExprDiff_insertBeforeChange___spec__1.exit
  %.0 = phi ptr [ %2, %l_Lean_RBNode_insert___at_Lean_Widget_ExprDiff_insertBeforeChange___spec__1.exit ], [ %48, %lean_alloc_ctor.exit ]
  ret ptr %.0
}